(lp0
(iitem
Item
p1
(dp2
S'elements'
p3
(dp4
sS'stats'
p5
(dp6
S'spatk'
p7
I0
sS'acc'
p8
I0
sS'dfn'
p9
I0
sS'bless'
p10
I0
sS'spdfn'
p11
I0
sS'eva'
p12
I0
sS'hp'
p13
I0
sS'sp'
p14
I0
sS'atk'
p15
I0
sS'crit'
p16
I0
ssS'name'
p17
VHero of Worlds
p18
sS'parent'
p19
NsS'import_file'
p20
S'standard'
p21
sS'value'
p22
(dp23
S'jewels'
p24
I0
sS'gold'
p25
I0
ssS'restoration'
p26
(dp27
S'hunger'
p28
(dp29
sS'food'
p30
(dp31
sg13
(dp32
sg14
(dp33
sS'xp'
p34
(dp35
sS'targets'
p36
NssS'effects'
p37
(lp38
sS'equipped'
p39
I00
sS'requirements'
p40
(dp41
S'lvl'
p42
(lp43
I1
aI-1
asS'ammo'
p44
NssS'type'
p45
S'None'
p46
sS'attack_types'
p47
(lp48
sS'quantity'
p49
(lp50
I-1
aI1
asba(iitem
Item
p51
(dp52
g3
(dp53
sg5
(dp54
g7
I0
sg8
I0
sg9
I0
sg10
I0
sg11
I0
sg12
I0
sg13
I0
sg14
I0
sg15
I0
sg16
I0
ssg17
VXP Potion
p55
sg19
Nsg20
S'standard'
p56
sg22
(dp57
g24
I0
sg25
I0
ssg26
(dp58
g28
(dp59
sg30
(dp60
sg13
(dp61
sg14
(dp62
sg34
(dp63
sg36
Nssg37
(lp64
sg39
I00
sg40
(dp65
g42
(lp66
I1
aI-1
asg44
Nssg45
S'None'
p67
sg47
(lp68
sg49
(lp69
I-1
aI1
asba(iitem
Item
p70
(dp71
g3
(dp72
sg5
(dp73
g7
I0
sg8
I0
sg9
I0
sg10
I0
sg11
I0
sg12
I0
sg13
I0
sg14
I0
sg15
I0
sg16
I0
ssg17
VBlack Blade
p74
sg19
Nsg20
S'standard'
p75
sg22
(dp76
g24
I0
sg25
I0
ssg26
(dp77
g28
(dp78
sg30
(dp79
sg13
(dp80
sg14
(dp81
sg34
(dp82
sg36
Nssg37
(lp83
sg39
I00
sg40
(dp84
g42
(lp85
I1
aI-1
asg44
Nssg45
g67
sg47
(lp86
sg49
(lp87
I-1
aI1
asba(iitem
Item
p88
(dp89
g3
(dp90
sg5
(dp91
g7
I0
sg8
I0
sg9
I0
sg10
I0
sg11
I0
sg12
I0
sg13
I0
sg14
I0
sg15
I0
sg16
I0
ssg17
VTornado Gloves
p92
sg19
Nsg20
S'standard'
p93
sg22
(dp94
g24
I0
sg25
I0
ssg26
(dp95
g28
(dp96
sg30
(dp97
sg13
(dp98
sg14
(dp99
sg34
(dp100
sg36
Nssg37
(lp101
sg39
I00
sg40
(dp102
g42
(lp103
I1
aI-1
asg44
Nssg45
g67
sg47
(lp104
sg49
(lp105
I-1
aI1
asba(iitem
Item
p106
(dp107
g3
(dp108
sg5
(dp109
g7
I0
sg8
I0
sg9
I0
sg10
I0
sg11
I0
sg12
I0
sg13
I0
sg14
I0
sg15
I0
sg16
I0
ssg17
VElectric Whip
p110
sg19
Nsg20
S'standard'
p111
sg22
(dp112
g24
I0
sg25
I0
ssg26
(dp113
g28
(dp114
sg30
(dp115
sg13
(dp116
sg14
(dp117
sg34
(dp118
sg36
Nssg37
(lp119
sg39
I00
sg40
(dp120
g42
(lp121
I1
aI-1
asg44
Nssg45
g67
sg47
(lp122
sg49
(lp123
I-1
aI1
asba(iitem
Item
p124
(dp125
g3
(dp126
sg5
(dp127
g7
I0
sg8
I0
sg9
I0
sg10
I0
sg11
I0
sg12
I0
sg13
I0
sg14
I0
sg15
I0
sg16
I0
ssg17
VTomato Launcher
p128
sg19
Nsg20
S'standard'
p129
sg22
(dp130
g24
I0
sg25
I0
ssg26
(dp131
g28
(dp132
sg30
(dp133
sg13
(dp134
sg14
(dp135
sg34
(dp136
sg36
Nssg37
(lp137
sg39
I00
sg40
(dp138
g42
(lp139
I1
aI-1
asg44
Nssg45
g67
sg47
(lp140
sg49
(lp141
I-1
aI1
asba(iitem
Item
p142
(dp143
g3
(dp144
sg5
(dp145
g7
I0
sg8
I0
sg9
I0
sg10
I0
sg11
I0
sg12
I0
sg13
I0
sg14
I0
sg15
I0
sg16
I0
ssg17
VPotion of Reneration II
p146
sg19
Nsg20
S'standard'
p147
sg22
(dp148
g24
I0
sg25
I0
ssg26
(dp149
g28
(dp150
sg30
(dp151
sg13
(dp152
sg14
(dp153
sg34
(dp154
sg36
Nssg37
(lp155
sg39
I00
sg40
(dp156
g42
(lp157
I1
aI-1
asg44
Nssg45
g67
sg47
(lp158
sg49
(lp159
I-1
aI1
asba(iitem
Item
p160
(dp161
g3
(dp162
sg5
(dp163
g7
I0
sg8
I0
sg9
I0
sg10
I0
sg11
I0
sg12
I0
sg13
I0
sg14
I0
sg15
I0
sg16
I0
ssg17
VExercise Spike Ball
p164
sg19
Nsg20
S'standard'
p165
sg22
(dp166
g24
I0
sg25
I0
ssg26
(dp167
g28
(dp168
sg30
(dp169
sg13
(dp170
sg14
(dp171
sg34
(dp172
sg36
Nssg37
(lp173
sg39
I00
sg40
(dp174
g42
(lp175
I1
aI-1
asg44
Nssg45
g67
sg47
(lp176
sg49
(lp177
I-1
aI1
asba(iitem
Item
p178
(dp179
g3
(dp180
sg5
(dp181
g7
I0
sg8
I0
sg9
I0
sg10
I0
sg11
I0
sg12
I0
sg13
I0
sg14
I0
sg15
I0
sg16
I0
ssg17
VThe 360 Sniper
p182
sg19
Nsg20
S'standard'
p183
sg22
(dp184
g24
I0
sg25
I0
ssg26
(dp185
g28
(dp186
sg30
(dp187
sg13
(dp188
sg14
(dp189
sg34
(dp190
sg36
Nssg37
(lp191
sg39
I00
sg40
(dp192
g42
(lp193
I1
aI-1
asg44
Nssg45
S'None'
p194
sg47
(lp195
sg49
(lp196
I-1
aI1
asba(iitem
Item
p197
(dp198
g3
(dp199
sg5
(dp200
g7
I0
sg8
I0
sg9
I0
sg10
I0
sg11
I0
sg12
I0
sg13
I0
sg14
I0
sg15
I0
sg16
I0
ssg17
VHuge Mace
p201
sg19
Nsg20
S'standard'
p202
sg22
(dp203
g24
I0
sg25
I0
ssg26
(dp204
g28
(dp205
sg30
(dp206
sg13
(dp207
sg14
(dp208
sg34
(dp209
sg36
Nssg37
(lp210
sg39
I00
sg40
(dp211
g42
(lp212
I1
aI-1
asg44
Nssg45
g67
sg47
(lp213
sg49
(lp214
I-1
aI1
asba(iitem
Item
p215
(dp216
g3
(dp217
sg5
(dp218
g7
I0
sg8
I0
sg9
I0
sg10
I0
sg11
I0
sg12
I0
sg13
I0
sg14
I0
sg15
I0
sg16
I0
ssg17
VHero's Chestplate
p219
sg19
Nsg20
S'standard'
p220
sg22
(dp221
g24
I0
sg25
I0
ssg26
(dp222
g28
(dp223
sg30
(dp224
sg13
(dp225
sg14
(dp226
sg34
(dp227
sg36
Nssg37
(lp228
sg39
I00
sg40
(dp229
g42
(lp230
I1
aI-1
asg44
Nssg45
g67
sg47
(lp231
sg49
(lp232
I-1
aI1
asba(iitem
Item
p233
(dp234
g3
(dp235
sg5
(dp236
g7
I0
sg8
I0
sg9
I0
sg10
I0
sg11
I0
sg12
I0
sg13
I0
sg14
I0
sg15
I0
sg16
I0
ssg17
VAbs
p237
sg19
Nsg20
S'standard'
p238
sg22
(dp239
g24
I0
sg25
I0
ssg26
(dp240
g28
(dp241
sg30
(dp242
sg13
(dp243
sg14
(dp244
sg34
(dp245
sg36
Nssg37
(lp246
sg39
I00
sg40
(dp247
g42
(lp248
I1
aI-1
asg44
Nssg45
g67
sg47
(lp249
sg49
(lp250
I-1
aI1
asba(iitem
Item
p251
(dp252
g3
(dp253
sg5
(dp254
g7
I0
sg8
I0
sg9
I0
sg10
I0
sg11
I0
sg12
I0
sg13
I0
sg14
I0
sg15
I0
sg16
I0
ssg17
VMini Knife
p255
sg19
Nsg20
S'standard'
p256
sg22
(dp257
g24
I0
sg25
I0
ssg26
(dp258
g28
(dp259
sg30
(dp260
sg13
(dp261
sg14
(dp262
sg34
(dp263
sg36
Nssg37
(lp264
sg39
I00
sg40
(dp265
g42
(lp266
I1
aI-1
asg44
Nssg45
g67
sg47
(lp267
sg49
(lp268
I-1
aI1
asba(iitem
Item
p269
(dp270
g3
(dp271
sg5
(dp272
g7
I0
sg8
I0
sg9
I0
sg10
I0
sg11
I0
sg12
I0
sg13
I0
sg14
I0
sg15
I0
sg16
I0
ssg17
VBroken Sword
p273
sg19
Nsg20
S'standard'
p274
sg22
(dp275
g24
I0
sg25
I0
ssg26
(dp276
g28
(dp277
sg30
(dp278
sg13
(dp279
sg14
(dp280
sg34
(dp281
sg36
Nssg37
(lp282
sg39
I00
sg40
(dp283
g42
(lp284
I1
aI-1
asg44
Nssg45
g67
sg47
(lp285
sg49
(lp286
I-1
aI1
asba(iitem
Item
p287
(dp288
g3
(dp289
sg5
(dp290
g7
I0
sg8
I0
sg9
I0
sg10
I0
sg11
I0
sg12
I0
sg13
I0
sg14
I0
sg15
I0
sg16
I0
ssg17
VApple
p291
sg19
Nsg20
S'standard'
p292
sg22
(dp293
g24
I0
sg25
I0
ssg26
(dp294
g28
(dp295
sg30
(dp296
sg13
(dp297
sg14
(dp298
sg34
(dp299
sg36
Nssg37
(lp300
sg39
I00
sg40
(dp301
g42
(lp302
I1
aI-1
asg44
Nssg45
g67
sg47
(lp303
sg49
(lp304
I-1
aI1
asba(iitem
Item
p305
(dp306
g3
(dp307
sg5
(dp308
g7
I0
sg8
I0
sg9
I0
sg10
I0
sg11
I0
sg12
I0
sg13
I0
sg14
I0
sg15
I0
sg16
I0
ssg17
VPurple Robe with Turkey L
p309
sg19
Nsg20
S'standard'
p310
sg22
(dp311
g24
I0
sg25
I0
ssg26
(dp312
g28
(dp313
sg30
(dp314
sg13
(dp315
sg14
(dp316
sg34
(dp317
sg36
Nssg37
(lp318
sg39
I00
sg40
(dp319
g42
(lp320
I1
aI-1
asg44
Nssg45
g46
sg47
(lp321
sg49
(lp322
I-1
aI1
asba(iitem
Item
p323
(dp324
g3
(dp325
sg5
(dp326
g7
I0
sg8
I0
sg9
I0
sg10
I0
sg11
I0
sg12
I0
sg13
I0
sg14
I0
sg15
I0
sg16
I0
ssg17
VSword of the Spirit
p327
sg19
Nsg20
S'standard'
p328
sg22
(dp329
g24
I0
sg25
I0
ssg26
(dp330
g28
(dp331
sg30
(dp332
sg13
(dp333
sg14
(dp334
sg34
(dp335
sg36
Nssg37
(lp336
sg39
I00
sg40
(dp337
g42
(lp338
I1
aI-1
asg44
Nssg45
g46
sg47
(lp339
sg49
(lp340
I-1
aI1
asba(iitem
Item
p341
(dp342
g3
(dp343
sg5
(dp344
g7
I0
sg8
I0
sg9
I0
sg10
I0
sg11
I0
sg12
I0
sg13
I0
sg14
I0
sg15
I0
sg16
I0
ssg17
VKing's Broadsword
p345
sg19
Nsg20
S'standard'
p346
sg22
(dp347
g24
I0
sg25
I0
ssg26
(dp348
g28
(dp349
sg30
(dp350
sg13
(dp351
sg14
(dp352
sg34
(dp353
sg36
Nssg37
(lp354
sg39
I00
sg40
(dp355
g42
(lp356
I1
aI-1
asg44
Nssg45
g46
sg47
(lp357
sg49
(lp358
I-1
aI1
asba(iitem
Item
p359
(dp360
g3
(dp361
sg5
(dp362
g7
I0
sg8
I0
sg9
I0
sg10
I0
sg11
I0
sg12
I0
sg13
I0
sg14
I0
sg15
I0
sg16
I0
ssg17
VThe Hammer That Was Nerfe
p363
sg19
Nsg20
S'standard'
p364
sg22
(dp365
g24
I0
sg25
I0
ssg26
(dp366
g28
(dp367
sg30
(dp368
sg13
(dp369
sg14
(dp370
sg34
(dp371
sg36
Nssg37
(lp372
sg39
I00
sg40
(dp373
g42
(lp374
I1
aI-1
asg44
Nssg45
g46
sg47
(lp375
sg49
(lp376
I-1
aI1
asba.