(lp0
(iitem
Item
p1
(dp2
S'elements'
p3
(dp4
sS'stats'
p5
(dp6
S'spatk'
p7
I0
sS'acc'
p8
I0
sS'dfn'
p9
I0
sS'bless'
p10
I0
sS'spdfn'
p11
I0
sS'eva'
p12
I0
sS'hp'
p13
I0
sS'sp'
p14
I0
sS'atk'
p15
I0
sS'crit'
p16
I0
ssS'name'
p17
VHero's Chestplate
p18
sS'parent'
p19
NsS'import_file'
p20
S'standard'
p21
sS'value'
p22
(dp23
S'jewels'
p24
I0
sS'gold'
p25
I0
ssS'restoration'
p26
(dp27
S'targets'
p28
Nsg13
(dp29
sg14
(dp30
sS'xp'
p31
(dp32
sS'hunger'
p33
(dp34
ssS'effects'
p35
(lp36
sS'equipped'
p37
I00
sS'requirements'
p38
(dp39
S'lvl'
p40
(lp41
I1
aI-1
asS'ammo'
p42
NssS'type'
p43
S'None'
p44
sS'attack_types'
p45
(lp46
sS'quantity'
p47
(lp48
I-1
aI1
asba(iitem
Item
p49
(dp50
g3
(dp51
sg5
(dp52
g7
I0
sg8
I0
sg9
I0
sg10
I0
sg11
I0
sg12
I0
sg13
I0
sg14
I0
sg15
I0
sg16
I0
ssg17
VHuge Mace
p53
sg19
Nsg20
S'standard'
p54
sg22
(dp55
g24
I0
sg25
I0
ssg26
(dp56
g28
Nsg13
(dp57
sg14
(dp58
sg31
(dp59
sg33
(dp60
ssg35
(lp61
sg37
I00
sg38
(dp62
g40
(lp63
I1
aI-1
asg42
Nssg43
g44
sg45
(lp64
sg47
(lp65
I-1
aI1
asba(iitem
Item
p66
(dp67
g3
(dp68
sg5
(dp69
g7
I0
sg8
I0
sg9
I0
sg10
I0
sg11
I0
sg12
I0
sg13
I0
sg14
I0
sg15
I0
sg16
I0
ssg17
VMini Knife
p70
sg19
Nsg20
S'standard'
p71
sg22
(dp72
g24
I0
sg25
I0
ssg26
(dp73
g28
Nsg13
(dp74
sg14
(dp75
sg31
(dp76
sg33
(dp77
ssg35
(lp78
sg37
I00
sg38
(dp79
g40
(lp80
I1
aI-1
asg42
Nssg43
g44
sg45
(lp81
sg47
(lp82
I-1
aI1
asba(iitem
Item
p83
(dp84
g3
(dp85
sg5
(dp86
g7
I0
sg8
I0
sg9
I0
sg10
I0
sg11
I0
sg12
I0
sg13
I0
sg14
I0
sg15
I0
sg16
I0
ssg17
VAbs
p87
sg19
Nsg20
S'standard'
p88
sg22
(dp89
g24
I0
sg25
I0
ssg26
(dp90
g28
Nsg13
(dp91
sg14
(dp92
sg31
(dp93
sg33
(dp94
ssg35
(lp95
sg37
I00
sg38
(dp96
g40
(lp97
I1
aI-1
asg42
Nssg43
g44
sg45
(lp98
sg47
(lp99
I-1
aI1
asba(iitem
Item
p100
(dp101
g3
(dp102
sg5
(dp103
g7
I0
sg8
I0
sg9
I0
sg10
I0
sg11
I0
sg12
I0
sg13
I0
sg14
I0
sg15
I0
sg16
I0
ssg17
VApple
p104
sg19
Nsg20
S'standard'
p105
sg22
(dp106
g24
I0
sg25
I0
ssg26
(dp107
g28
Nsg13
(dp108
sg14
(dp109
sg31
(dp110
sg33
(dp111
ssg35
(lp112
sg37
I00
sg38
(dp113
g40
(lp114
I1
aI-1
asg42
Nssg43
g44
sg45
(lp115
sg47
(lp116
I-1
aI1
asba(iitem
Item
p117
(dp118
g3
(dp119
sg5
(dp120
g7
I0
sg8
I0
sg9
I0
sg10
I0
sg11
I0
sg12
I0
sg13
I0
sg14
I0
sg15
I0
sg16
I0
ssg17
VBroken Sword
p121
sg19
Nsg20
S'standard'
p122
sg22
(dp123
g24
I0
sg25
I0
ssg26
(dp124
g28
Nsg13
(dp125
sg14
(dp126
sg31
(dp127
sg33
(dp128
ssg35
(lp129
sg37
I00
sg38
(dp130
g40
(lp131
I1
aI-1
asg42
Nssg43
g44
sg45
(lp132
sg47
(lp133
I-1
aI1
asba(iitem
Item
p134
(dp135
g3
(dp136
sg5
(dp137
g7
I0
sg8
I0
sg9
I0
sg10
I0
sg11
I0
sg12
I0
sg13
I0
sg14
I0
sg15
I0
sg16
I0
ssg17
VSword of the Spirit
p138
sg19
Nsg20
S'standard'
p139
sg22
(dp140
g24
I0
sg25
I0
ssg26
(dp141
g28
Nsg13
(dp142
sg14
(dp143
sg31
(dp144
sg33
(dp145
ssg35
(lp146
sg37
I00
sg38
(dp147
g40
(lp148
I1
aI-1
asg42
Nssg43
S'None'
p149
sg45
(lp150
sg47
(lp151
I-1
aI1
asba(iitem
Item
p152
(dp153
g3
(dp154
sg5
(dp155
g7
I0
sg8
I0
sg9
I0
sg10
I0
sg11
I0
sg12
I0
sg13
I0
sg14
I0
sg15
I0
sg16
I0
ssg17
VPurple Robe with Turkey L
p156
sg19
Nsg20
S'standard'
p157
sg22
(dp158
g24
I0
sg25
I0
ssg26
(dp159
g28
Nsg13
(dp160
sg14
(dp161
sg31
(dp162
sg33
(dp163
ssg35
(lp164
sg37
I00
sg38
(dp165
g40
(lp166
I1
aI-1
asg42
Nssg43
g149
sg45
(lp167
sg47
(lp168
I-1
aI1
asba(iitem
Item
p169
(dp170
g3
(dp171
sg5
(dp172
g7
I0
sg8
I0
sg9
I0
sg10
I0
sg11
I0
sg12
I0
sg13
I0
sg14
I0
sg15
I0
sg16
I0
ssg17
VThe Hammer That Was Nerfe
p173
sg19
Nsg20
S'standard'
p174
sg22
(dp175
g24
I0
sg25
I0
ssg26
(dp176
g28
Nsg13
(dp177
sg14
(dp178
sg31
(dp179
sg33
(dp180
ssg35
(lp181
sg37
I00
sg38
(dp182
g40
(lp183
I1
aI-1
asg42
Nssg43
g149
sg45
(lp184
sg47
(lp185
I-1
aI1
asba(iitem
Item
p186
(dp187
g3
(dp188
sg5
(dp189
g7
I0
sg8
I0
sg9
I0
sg10
I0
sg11
I0
sg12
I0
sg13
I0
sg14
I0
sg15
I0
sg16
I0
ssg17
VKing's Broadsword
p190
sg19
Nsg20
S'standard'
p191
sg22
(dp192
g24
I0
sg25
I0
ssg26
(dp193
g28
Nsg13
(dp194
sg14
(dp195
sg31
(dp196
sg33
(dp197
ssg35
(lp198
sg37
I00
sg38
(dp199
g40
(lp200
I1
aI-1
asg42
Nssg43
g149
sg45
(lp201
sg47
(lp202
I-1
aI1
asba(iitem
Item
p203
(dp204
g3
(dp205
sg5
(dp206
g7
I0
sg8
I0
sg9
I0
sg10
I0
sg11
I0
sg12
I0
sg13
I0
sg14
I0
sg15
I0
sg16
I0
ssg17
VXP Potion
p207
sg19
Nsg20
S'standard'
p208
sg22
(dp209
g24
I0
sg25
I0
ssg26
(dp210
g28
Nsg13
(dp211
sg14
(dp212
sg31
(dp213
sg33
(dp214
ssg35
(lp215
sg37
I00
sg38
(dp216
g40
(lp217
I1
aI-1
asg42
Nssg43
g44
sg45
(lp218
sg47
(lp219
I-1
aI1
asba(iitem
Item
p220
(dp221
g3
(dp222
sg5
(dp223
g7
I0
sg8
I0
sg9
I0
sg10
I0
sg11
I0
sg12
I0
sg13
I0
sg14
I0
sg15
I0
sg16
I0
ssg17
VHero of Worlds
p224
sg19
Nsg20
S'standard'
p225
sg22
(dp226
g24
I0
sg25
I0
ssg26
(dp227
g28
Nsg13
(dp228
sg14
(dp229
sg31
(dp230
sg33
(dp231
ssg35
(lp232
sg37
I00
sg38
(dp233
g40
(lp234
I1
aI-1
asg42
Nssg43
g149
sg45
(lp235
sg47
(lp236
I-1
aI1
asba(iitem
Item
p237
(dp238
g3
(dp239
sg5
(dp240
g7
I0
sg8
I0
sg9
I0
sg10
I0
sg11
I0
sg12
I0
sg13
I0
sg14
I0
sg15
I0
sg16
I0
ssg17
VTornado Gloves
p241
sg19
Nsg20
S'standard'
p242
sg22
(dp243
g24
I0
sg25
I0
ssg26
(dp244
g28
Nsg13
(dp245
sg14
(dp246
sg31
(dp247
sg33
(dp248
ssg35
(lp249
sg37
I00
sg38
(dp250
g40
(lp251
I1
aI-1
asg42
Nssg43
g44
sg45
(lp252
sg47
(lp253
I-1
aI1
asba(iitem
Item
p254
(dp255
g3
(dp256
sg5
(dp257
g7
I0
sg8
I0
sg9
I0
sg10
I0
sg11
I0
sg12
I0
sg13
I0
sg14
I0
sg15
I0
sg16
I0
ssg17
VBlack Blade
p258
sg19
Nsg20
S'standard'
p259
sg22
(dp260
g24
I0
sg25
I0
ssg26
(dp261
g28
Nsg13
(dp262
sg14
(dp263
sg31
(dp264
sg33
(dp265
ssg35
(lp266
sg37
I00
sg38
(dp267
g40
(lp268
I1
aI-1
asg42
Nssg43
g44
sg45
(lp269
sg47
(lp270
I-1
aI1
asba(iitem
Item
p271
(dp272
g3
(dp273
sg5
(dp274
g7
I0
sg8
I0
sg9
I0
sg10
I0
sg11
I0
sg12
I0
sg13
I0
sg14
I0
sg15
I0
sg16
I0
ssg17
VTomato Launcher
p275
sg19
Nsg20
S'standard'
p276
sg22
(dp277
g24
I0
sg25
I0
ssg26
(dp278
g28
Nsg13
(dp279
sg14
(dp280
sg31
(dp281
sg33
(dp282
ssg35
(lp283
sg37
I00
sg38
(dp284
g40
(lp285
I1
aI-1
asg42
Nssg43
g44
sg45
(lp286
sg47
(lp287
I-1
aI1
asba(iitem
Item
p288
(dp289
g3
(dp290
sg5
(dp291
g7
I0
sg8
I0
sg9
I0
sg10
I0
sg11
I0
sg12
I0
sg13
I0
sg14
I0
sg15
I0
sg16
I0
ssg17
VElectric Whip
p292
sg19
Nsg20
S'standard'
p293
sg22
(dp294
g24
I0
sg25
I0
ssg26
(dp295
g28
Nsg13
(dp296
sg14
(dp297
sg31
(dp298
sg33
(dp299
ssg35
(lp300
sg37
I00
sg38
(dp301
g40
(lp302
I1
aI-1
asg42
Nssg43
g44
sg45
(lp303
sg47
(lp304
I-1
aI1
asba(iitem
Item
p305
(dp306
g3
(dp307
sg5
(dp308
g7
I0
sg8
I0
sg9
I0
sg10
I0
sg11
I0
sg12
I0
sg13
I0
sg14
I0
sg15
I0
sg16
I0
ssg17
VExercise Spike Ball
p309
sg19
Nsg20
S'standard'
p310
sg22
(dp311
g24
I0
sg25
I0
ssg26
(dp312
g28
Nsg13
(dp313
sg14
(dp314
sg31
(dp315
sg33
(dp316
ssg35
(lp317
sg37
I00
sg38
(dp318
g40
(lp319
I1
aI-1
asg42
Nssg43
g44
sg45
(lp320
sg47
(lp321
I-1
aI1
asba(iitem
Item
p322
(dp323
g3
(dp324
sg5
(dp325
g7
I0
sg8
I0
sg9
I0
sg10
I0
sg11
I0
sg12
I0
sg13
I0
sg14
I0
sg15
I0
sg16
I0
ssg17
VPotion of Reneration II
p326
sg19
Nsg20
S'standard'
p327
sg22
(dp328
g24
I0
sg25
I0
ssg26
(dp329
g28
Nsg13
(dp330
sg14
(dp331
sg31
(dp332
sg33
(dp333
ssg35
(lp334
sg37
I00
sg38
(dp335
g40
(lp336
I1
aI-1
asg42
Nssg43
g44
sg45
(lp337
sg47
(lp338
I-1
aI1
asba(iitem
Item
p339
(dp340
g3
(dp341
sg5
(dp342
g7
I0
sg8
I0
sg9
I0
sg10
I0
sg11
I0
sg12
I0
sg13
I0
sg14
I0
sg15
I0
sg16
I0
ssg17
VThe 360 Sniper
p343
sg19
Nsg20
S'standard'
p344
sg22
(dp345
g24
I0
sg25
I0
ssg26
(dp346
g28
Nsg13
(dp347
sg14
(dp348
sg31
(dp349
sg33
(dp350
ssg35
(lp351
sg37
I00
sg38
(dp352
g40
(lp353
I1
aI-1
asg42
Nssg43
S'None'
p354
sg45
(lp355
sg47
(lp356
I-1
aI1
asba.