(lp0
(iitem
Item
p1
(dp2
S'elements'
p3
(dp4
sS'stats'
p5
(dp6
S'spatk'
p7
I0
sS'acc'
p8
I0
sS'dfn'
p9
I0
sS'bless'
p10
I0
sS'spdfn'
p11
I0
sS'eva'
p12
I0
sS'hp'
p13
I0
sS'sp'
p14
I0
sS'atk'
p15
I0
sS'crit'
p16
I0
ssS'name'
p17
VPotion of Reneration II
p18
sS'parent'
p19
NsS'import_file'
p20
S'standard'
p21
sS'value'
p22
(dp23
S'jewels'
p24
I0
sS'gold'
p25
I0
ssS'restoration'
p26
(dp27
S'hunger'
p28
(dp29
sS'food'
p30
(dp31
sg13
(dp32
sg14
(dp33
sS'xp'
p34
(dp35
sS'targets'
p36
NssS'effects'
p37
(lp38
sS'equipped'
p39
I00
sS'requirements'
p40
(dp41
S'lvl'
p42
(lp43
I1
aI999
asS'ammo'
p44
NssS'type'
p45
S'None'
p46
sS'attack_types'
p47
(lp48
sS'quantity'
p49
(lp50
I-1
aI1
asba(iitem
Item
p51
(dp52
g3
(dp53
sg5
(dp54
g7
I1
sg8
I1
sg9
I1
sg10
I1
sg11
I1
sg12
I1
sg13
I0
sg14
I0
sg15
I1
sg16
I1
ssg17
VExercise Spike Ball
p55
sg19
Nsg20
S'standard'
p56
sg22
(dp57
g24
I0
sg25
I0
ssg26
(dp58
g28
(dp59
sg30
(dp60
sg13
(dp61
sg14
(dp62
sg34
(dp63
sg36
Nssg37
(lp64
sg39
I00
sg40
(dp65
g42
(lp66
I1
aI999
asg44
Nssg45
g46
sg47
(lp67
sg49
(lp68
I-1
aI1
asba(iitem
Item
p69
(dp70
g3
(dp71
sg5
(dp72
g7
I1
sg8
I1
sg9
I1
sg10
I1
sg11
I1
sg12
I1
sg13
I0
sg14
I0
sg15
I1
sg16
I1
ssg17
VHero's Chestplate
p73
sg19
Nsg20
S'standard'
p74
sg22
(dp75
g24
I0
sg25
I0
ssg26
(dp76
g28
(dp77
sg30
(dp78
sg13
(dp79
sg14
(dp80
sg34
(dp81
sg36
Nssg37
(lp82
sg39
I00
sg40
(dp83
g42
(lp84
I1
aI-1
asg44
Nssg45
g46
sg47
(lp85
sg49
(lp86
I-1
aI1
asba(iitem
Item
p87
(dp88
g3
(dp89
sg5
(dp90
g7
I1
sg8
I1
sg9
I1
sg10
I1
sg11
I1
sg12
I1
sg13
I0
sg14
I0
sg15
I1
sg16
I1
ssg17
VHuge Mace
p91
sg19
Nsg20
S'standard'
p92
sg22
(dp93
g24
I0
sg25
I0
ssg26
(dp94
g28
(dp95
sg30
(dp96
sg13
(dp97
sg14
(dp98
sg34
(dp99
sg36
Nssg37
(lp100
sg39
I00
sg40
(dp101
g42
(lp102
I51
aI-1
asg44
Nssg45
g46
sg47
(lp103
sg49
(lp104
I-1
aI1
asba(iitem
Item
p105
(dp106
g3
(dp107
sg5
(dp108
g7
I0
sg8
I0
sg9
I0
sg10
I0
sg11
I0
sg12
I0
sg13
I0
sg14
I0
sg15
I0
sg16
I0
ssg17
VMini Knife
p109
sg19
Nsg20
S'standard'
p110
sg22
(dp111
g24
I0
sg25
I0
ssg26
(dp112
g28
(dp113
sg30
(dp114
sg13
(dp115
sg14
(dp116
sg34
(dp117
sg36
Nssg37
(lp118
sg39
I00
sg40
(dp119
g42
(lp120
I13
aI999
asg44
Nssg45
g46
sg47
(lp121
sg49
(lp122
I-1
aI1
asba(iitem
Item
p123
(dp124
g3
(dp125
sg5
(dp126
g7
I0
sg8
I0
sg9
I0
sg10
I0
sg11
I0
sg12
I0
sg13
I0
sg14
I0
sg15
I0
sg16
I0
ssg17
VAbs
p127
sg19
Nsg20
S'standard'
p128
sg22
(dp129
g24
I0
sg25
I0
ssg26
(dp130
g28
(dp131
sg30
(dp132
sg13
(dp133
sg14
(dp134
sg34
(dp135
sg36
Nssg37
(lp136
sg39
I00
sg40
(dp137
g42
(lp138
I82
aI999
asg44
Nssg45
g46
sg47
(lp139
sg49
(lp140
I-1
aI1
asba(iitem
Item
p141
(dp142
g3
(dp143
sg5
(dp144
g7
I0
sg8
I0
sg9
I0
sg10
I0
sg11
I0
sg12
I0
sg13
I0
sg14
I0
sg15
I0
sg16
I0
ssg17
VApple
p145
sg19
Nsg20
S'standard'
p146
sg22
(dp147
g24
I0
sg25
I0
ssg26
(dp148
g28
(dp149
sg30
(dp150
sg13
(dp151
sg14
(dp152
sg34
(dp153
sg36
Nssg37
(lp154
sg39
I00
sg40
(dp155
g42
(lp156
I42
aI999
asg44
Nssg45
g46
sg47
(lp157
sg49
(lp158
I-1
aI1
asba(iitem
Item
p159
(dp160
g3
(dp161
sg5
(dp162
g7
I0
sg8
I0
sg9
I0
sg10
I0
sg11
I0
sg12
I0
sg13
I0
sg14
I0
sg15
I0
sg16
I0
ssg17
VBroken Sword
p163
sg19
Nsg20
S'standard'
p164
sg22
(dp165
g24
I0
sg25
I0
ssg26
(dp166
g28
(dp167
sg30
(dp168
sg13
(dp169
sg14
(dp170
sg34
(dp171
sg36
Nssg37
(lp172
sg39
I00
sg40
(dp173
g42
(lp174
I10
aI999
asg44
Nssg45
g46
sg47
(lp175
sg49
(lp176
I-1
aI1
asba(iitem
Item
p177
(dp178
g3
(dp179
sg5
(dp180
g7
I0
sg8
I0
sg9
I0
sg10
I0
sg11
I0
sg12
I0
sg13
I0
sg14
I0
sg15
I0
sg16
I0
ssg17
VThe 360 Sniper
p181
sg19
Nsg20
S'standard'
p182
sg22
(dp183
g24
I0
sg25
I0
ssg26
(dp184
g28
(dp185
sg30
(dp186
sg13
(dp187
sg14
(dp188
sg34
(dp189
sg36
Nssg37
(lp190
sg39
I00
sg40
(dp191
g42
(lp192
I262
aI-1
asg44
Nssg45
S'None'
p193
sg47
(lp194
sg49
(lp195
I-1
aI1
asba(iitem
Item
p196
(dp197
g3
(dp198
sg5
(dp199
g7
I0
sg8
I0
sg9
I0
sg10
I0
sg11
I0
sg12
I0
sg13
I0
sg14
I0
sg15
I0
sg16
I0
ssg17
VPurple Robe with Turkey L
p200
sg19
Nsg20
S'standard'
p201
sg22
(dp202
g24
I0
sg25
I0
ssg26
(dp203
g28
(dp204
sg30
(dp205
sg13
(dp206
sg14
(dp207
sg34
(dp208
sg36
Nssg37
(lp209
sg39
I00
sg40
(dp210
g42
(lp211
I1
aI999
asg44
Nssg45
S'None'
p212
sg47
(lp213
sg49
(lp214
I-1
aI1
asba(iitem
Item
p215
(dp216
g3
(dp217
sg5
(dp218
g7
I0
sg8
I0
sg9
I0
sg10
I0
sg11
I0
sg12
I0
sg13
I0
sg14
I0
sg15
I0
sg16
I0
ssg17
VSword of the Spirit
p219
sg19
Nsg20
S'standard'
p220
sg22
(dp221
g24
I0
sg25
I0
ssg26
(dp222
g28
(dp223
sg30
(dp224
sg13
(dp225
sg14
(dp226
sg34
(dp227
sg36
Nssg37
(lp228
sg39
I00
sg40
(dp229
g42
(lp230
I41
aI999
asg44
Nssg45
g212
sg47
(lp231
sg49
(lp232
I-1
aI1
asba(iitem
Item
p233
(dp234
g3
(dp235
sg5
(dp236
g7
I0
sg8
I0
sg9
I0
sg10
I0
sg11
I0
sg12
I0
sg13
I0
sg14
I0
sg15
I0
sg16
I0
ssg17
VKing's Broadsword
p237
sg19
Nsg20
S'standard'
p238
sg22
(dp239
g24
I0
sg25
I0
ssg26
(dp240
g28
(dp241
sg30
(dp242
sg13
(dp243
sg14
(dp244
sg34
(dp245
sg36
Nssg37
(lp246
sg39
I00
sg40
(dp247
g42
(lp248
I1
aI-1
asg44
Nssg45
g212
sg47
(lp249
sg49
(lp250
I-1
aI1
asba(iitem
Item
p251
(dp252
g3
(dp253
sg5
(dp254
g7
I1
sg8
I1
sg9
I1
sg10
I1
sg11
I1
sg12
I1
sg13
I0
sg14
I0
sg15
I1
sg16
I1
ssg17
VXP Potion
p255
sg19
Nsg20
S'standard'
p256
sg22
(dp257
g24
I0
sg25
I0
ssg26
(dp258
g28
(dp259
sg30
(dp260
sg13
(dp261
sg14
(dp262
sg34
(dp263
sg36
Nssg37
(lp264
sg39
I00
sg40
(dp265
g42
(lp266
I1
aI-1
asg44
Nssg45
g46
sg47
(lp267
sg49
(lp268
I-1
aI1
asba(iitem
Item
p269
(dp270
g3
(dp271
sg5
(dp272
g7
I700
sg8
I1200
sg9
I610
sg10
I120
sg11
I260
sg12
I100
sg13
I10000
sg14
I150
sg15
I1000
sg16
I1500
ssg17
VHero of Worlds
p273
sg19
Nsg20
S'standard'
p274
sg22
(dp275
g24
I500
sg25
I1000000
ssg26
(dp276
g28
(dp277
sg30
(dp278
sg13
(dp279
sg14
(dp280
sg34
(dp281
sg36
Nssg37
(lp282
sg39
I00
sg40
(dp283
g42
(lp284
I100
aI-1
asg44
Nssg45
g212
sg47
(lp285
sg49
(lp286
I-1
aI1
asba(iitem
Item
p287
(dp288
g3
(dp289
sg5
(dp290
g7
I1
sg8
I1
sg9
I1
sg10
I1
sg11
I1
sg12
I1
sg13
I0
sg14
I0
sg15
I1
sg16
I1
ssg17
VTornado Gloves
p291
sg19
Nsg20
S'standard'
p292
sg22
(dp293
g24
I0
sg25
I0
ssg26
(dp294
g28
(dp295
sg30
(dp296
sg13
(dp297
sg14
(dp298
sg34
(dp299
sg36
Nssg37
(lp300
sg39
I00
sg40
(dp301
g42
(lp302
I31
aI999
asg44
Nssg45
g46
sg47
(lp303
sg49
(lp304
I-1
aI1
asba(iitem
Item
p305
(dp306
g3
(dp307
sg5
(dp308
g7
I0
sg8
I0
sg9
I0
sg10
I0
sg11
I0
sg12
I0
sg13
I0
sg14
I0
sg15
I0
sg16
I0
ssg17
VBlack Blade
p309
sg19
Nsg20
S'standard'
p310
sg22
(dp311
g24
I0
sg25
I0
ssg26
(dp312
g28
(dp313
sg30
(dp314
sg13
(dp315
sg14
(dp316
sg34
(dp317
sg36
Nssg37
(lp318
sg39
I00
sg40
(dp319
g42
(lp320
I1
aI999
asg44
Nssg45
g46
sg47
(lp321
sg49
(lp322
I-1
aI1
asba(iitem
Item
p323
(dp324
g3
(dp325
sg5
(dp326
g7
I1
sg8
I1
sg9
I1
sg10
I1
sg11
I1
sg12
I1
sg13
I0
sg14
I0
sg15
I1
sg16
I1
ssg17
VTomato Launcher
p327
sg19
Nsg20
S'standard'
p328
sg22
(dp329
g24
I0
sg25
I0
ssg26
(dp330
g28
(dp331
sg30
(dp332
sg13
(dp333
sg14
(dp334
sg34
(dp335
sg36
Nssg37
(lp336
sg39
I00
sg40
(dp337
g42
(lp338
I1
aI999
asg44
Nssg45
g46
sg47
(lp339
sg49
(lp340
I-1
aI1
asba(iitem
Item
p341
(dp342
g3
(dp343
sg5
(dp344
g7
I0
sg8
I0
sg9
I0
sg10
I0
sg11
I0
sg12
I0
sg13
I0
sg14
I0
sg15
I0
sg16
I0
ssg17
VElectric Whip
p345
sg19
Nsg20
S'standard'
p346
sg22
(dp347
g24
I0
sg25
I0
ssg26
(dp348
g28
(dp349
sg30
(dp350
sg13
(dp351
sg14
(dp352
sg34
(dp353
sg36
Nssg37
(lp354
sg39
I00
sg40
(dp355
g42
(lp356
I11
aI999
asg44
Nssg45
g46
sg47
(lp357
sg49
(lp358
I-1
aI1
asba(iitem
Item
p359
(dp360
g3
(dp361
sg5
(dp362
g7
I1
sg8
I1
sg9
I1
sg10
I1
sg11
I1
sg12
I1
sg13
I0
sg14
I0
sg15
I1
sg16
I1
ssg17
VThe Hammer That Was Nerfe
p363
sg19
Nsg20
S'standard'
p364
sg22
(dp365
g24
I0
sg25
I0
ssg26
(dp366
g28
(dp367
sg30
(dp368
sg13
(dp369
sg14
(dp370
sg34
(dp371
sg36
Nssg37
(lp372
sg39
I00
sg40
(dp373
g42
(lp374
I26
aI-1
asg44
Nssg45
g212
sg47
(lp375
sg49
(lp376
I-1
aI1
asba.