(lp0
(iitem
Item
p1
(dp2
S'elements'
p3
(dp4
sS'stats'
p5
(dp6
S'spatk'
p7
I0
sS'acc'
p8
I0
sS'dfn'
p9
I0
sS'bless'
p10
I0
sS'spdfn'
p11
I0
sS'eva'
p12
I0
sS'hp'
p13
I0
sS'sp'
p14
I0
sS'atk'
p15
I0
sS'crit'
p16
I0
ssS'name'
p17
VKing's Broadsword
p18
sS'parent'
p19
NsS'import_file'
p20
S'standard'
p21
sS'value'
p22
(dp23
S'jewels'
p24
I0
sS'gold'
p25
I0
ssS'restoration'
p26
(dp27
S'hunger'
p28
(dp29
sS'food'
p30
(dp31
sg13
(dp32
sg14
(dp33
sS'xp'
p34
(dp35
sS'targets'
p36
NssS'effects'
p37
(lp38
sS'equipped'
p39
I00
sS'requirements'
p40
(dp41
S'lvl'
p42
(lp43
I1
aI999
asS'ammo'
p44
NssS'type'
p45
S'None'
p46
sS'attack_types'
p47
(lp48
sS'quantity'
p49
(lp50
I-1
aI1
asba(iitem
Item
p51
(dp52
g3
(dp53
sg5
(dp54
g7
I0
sg8
I0
sg9
I0
sg10
I0
sg11
I0
sg12
I0
sg13
I0
sg14
I0
sg15
I0
sg16
I0
ssg17
VSword of the Spirit
p55
sg19
Nsg20
S'standard'
p56
sg22
(dp57
g24
I0
sg25
I0
ssg26
(dp58
g28
(dp59
sg30
(dp60
sg13
(dp61
sg14
(dp62
sg34
(dp63
sg36
Nssg37
(lp64
sg39
I00
sg40
(dp65
g42
(lp66
I41
aI999
asg44
Nssg45
g46
sg47
(lp67
sg49
(lp68
I-1
aI1
asba(iitem
Item
p69
(dp70
g3
(dp71
sg5
(dp72
g7
I700
sg8
I1200
sg9
I610
sg10
I120
sg11
I260
sg12
I100
sg13
I10000
sg14
I150
sg15
I1000
sg16
I1500
ssg17
VHero of Worlds
p73
sg19
Nsg20
S'standard'
p74
sg22
(dp75
g24
I500
sg25
I1000000
ssg26
(dp76
g28
(dp77
sg30
(dp78
sg13
(dp79
sg14
(dp80
sg34
(dp81
sg36
Nssg37
(lp82
sg39
I00
sg40
(dp83
g42
(lp84
I100
aI-1
asg44
Nssg45
g46
sg47
(lp85
sg49
(lp86
I-1
aI1
asba(iitem
Item
p87
(dp88
g3
(dp89
sg5
(dp90
g7
I1
sg8
I1
sg9
I1
sg10
I1
sg11
I1
sg12
I1
sg13
I0
sg14
I0
sg15
I1
sg16
I1
ssg17
VXP Potion
p91
sg19
Nsg20
S'standard'
p92
sg22
(dp93
g24
I0
sg25
I0
ssg26
(dp94
g28
(dp95
sg30
(dp96
sg13
(dp97
sg14
(dp98
sg34
(dp99
sg36
Nssg37
(lp100
sg39
I00
sg40
(dp101
g42
(lp102
I1
aI-1
asg44
Nssg45
S'None'
p103
sg47
(lp104
sg49
(lp105
I-1
aI1
asba(iitem
Item
p106
(dp107
g3
(dp108
sg5
(dp109
g7
I0
sg8
I0
sg9
I0
sg10
I0
sg11
I0
sg12
I0
sg13
I0
sg14
I0
sg15
I0
sg16
I0
ssg17
VBlack Blade
p110
sg19
Nsg20
S'standard'
p111
sg22
(dp112
g24
I0
sg25
I0
ssg26
(dp113
g28
(dp114
sg30
(dp115
sg13
(dp116
sg14
(dp117
sg34
(dp118
sg36
Nssg37
(lp119
sg39
I00
sg40
(dp120
g42
(lp121
I1
aI999
asg44
Nssg45
g103
sg47
(lp122
sg49
(lp123
I-1
aI1
asba(iitem
Item
p124
(dp125
g3
(dp126
sg5
(dp127
g7
I1
sg8
I1
sg9
I1
sg10
I1
sg11
I1
sg12
I1
sg13
I0
sg14
I0
sg15
I1
sg16
I1
ssg17
VTornado Gloves
p128
sg19
Nsg20
S'standard'
p129
sg22
(dp130
g24
I0
sg25
I0
ssg26
(dp131
g28
(dp132
sg30
(dp133
sg13
(dp134
sg14
(dp135
sg34
(dp136
sg36
Nssg37
(lp137
sg39
I00
sg40
(dp138
g42
(lp139
I31
aI999
asg44
Nssg45
g103
sg47
(lp140
sg49
(lp141
I-1
aI1
asba(iitem
Item
p142
(dp143
g3
(dp144
sg5
(dp145
g7
I0
sg8
I0
sg9
I0
sg10
I0
sg11
I0
sg12
I0
sg13
I0
sg14
I0
sg15
I0
sg16
I0
ssg17
VElectric Whip
p146
sg19
Nsg20
S'standard'
p147
sg22
(dp148
g24
I0
sg25
I0
ssg26
(dp149
g28
(dp150
sg30
(dp151
sg13
(dp152
sg14
(dp153
sg34
(dp154
sg36
Nssg37
(lp155
sg39
I00
sg40
(dp156
g42
(lp157
I11
aI999
asg44
Nssg45
g103
sg47
(lp158
sg49
(lp159
I-1
aI1
asba(iitem
Item
p160
(dp161
g3
(dp162
sg5
(dp163
g7
I1
sg8
I1
sg9
I1
sg10
I1
sg11
I1
sg12
I1
sg13
I0
sg14
I0
sg15
I1
sg16
I1
ssg17
VTomato Launcher
p164
sg19
Nsg20
S'standard'
p165
sg22
(dp166
g24
I0
sg25
I0
ssg26
(dp167
g28
(dp168
sg30
(dp169
sg13
(dp170
sg14
(dp171
sg34
(dp172
sg36
Nssg37
(lp173
sg39
I00
sg40
(dp174
g42
(lp175
I1
aI999
asg44
Nssg45
g103
sg47
(lp176
sg49
(lp177
I-1
aI1
asba(iitem
Item
p178
(dp179
g3
(dp180
sg5
(dp181
g7
I1
sg8
I1
sg9
I1
sg10
I1
sg11
I1
sg12
I1
sg13
I0
sg14
I0
sg15
I1
sg16
I1
ssg17
VThe Hammer That Was Nerfe
p182
sg19
Nsg20
S'standard'
p183
sg22
(dp184
g24
I0
sg25
I0
ssg26
(dp185
g28
(dp186
sg30
(dp187
sg13
(dp188
sg14
(dp189
sg34
(dp190
sg36
Nssg37
(lp191
sg39
I00
sg40
(dp192
g42
(lp193
I26
aI-1
asg44
Nssg45
g46
sg47
(lp194
sg49
(lp195
I-1
aI1
asba(iitem
Item
p196
(dp197
g3
(dp198
sg5
(dp199
g7
I1
sg8
I1
sg9
I1
sg10
I1
sg11
I1
sg12
I1
sg13
I0
sg14
I0
sg15
I1
sg16
I1
ssg17
VExercise Spike Ball
p200
sg19
Nsg20
S'standard'
p201
sg22
(dp202
g24
I0
sg25
I0
ssg26
(dp203
g28
(dp204
sg30
(dp205
sg13
(dp206
sg14
(dp207
sg34
(dp208
sg36
Nssg37
(lp209
sg39
I00
sg40
(dp210
g42
(lp211
I1
aI999
asg44
Nssg45
g103
sg47
(lp212
sg49
(lp213
I-1
aI1
asba(iitem
Item
p214
(dp215
g3
(dp216
sg5
(dp217
g7
I0
sg8
I0
sg9
I0
sg10
I0
sg11
I0
sg12
I0
sg13
I0
sg14
I0
sg15
I0
sg16
I0
ssg17
VPotion of Reneration II
p218
sg19
Nsg20
S'standard'
p219
sg22
(dp220
g24
I0
sg25
I0
ssg26
(dp221
g28
(dp222
sg30
(dp223
sg13
(dp224
sg14
(dp225
sg34
(dp226
sg36
Nssg37
(lp227
sg39
I00
sg40
(dp228
g42
(lp229
I1
aI999
asg44
Nssg45
g103
sg47
(lp230
sg49
(lp231
I-1
aI1
asba(iitem
Item
p232
(dp233
g3
(dp234
sg5
(dp235
g7
I1
sg8
I1
sg9
I1
sg10
I1
sg11
I1
sg12
I1
sg13
I0
sg14
I0
sg15
I1
sg16
I1
ssg17
VHuge Mace
p236
sg19
Nsg20
S'standard'
p237
sg22
(dp238
g24
I0
sg25
I0
ssg26
(dp239
g28
(dp240
sg30
(dp241
sg13
(dp242
sg14
(dp243
sg34
(dp244
sg36
Nssg37
(lp245
sg39
I00
sg40
(dp246
g42
(lp247
I51
aI-1
asg44
Nssg45
g103
sg47
(lp248
sg49
(lp249
I-1
aI1
asba(iitem
Item
p250
(dp251
g3
(dp252
sg5
(dp253
g7
I1
sg8
I1
sg9
I1
sg10
I1
sg11
I1
sg12
I1
sg13
I0
sg14
I0
sg15
I1
sg16
I1
ssg17
VHero's Chestplate
p254
sg19
Nsg20
S'standard'
p255
sg22
(dp256
g24
I0
sg25
I0
ssg26
(dp257
g28
(dp258
sg30
(dp259
sg13
(dp260
sg14
(dp261
sg34
(dp262
sg36
Nssg37
(lp263
sg39
I00
sg40
(dp264
g42
(lp265
I1
aI-1
asg44
Nssg45
g103
sg47
(lp266
sg49
(lp267
I-1
aI1
asba(iitem
Item
p268
(dp269
g3
(dp270
sg5
(dp271
g7
I0
sg8
I0
sg9
I0
sg10
I0
sg11
I0
sg12
I0
sg13
I0
sg14
I0
sg15
I0
sg16
I0
ssg17
VAbs
p272
sg19
Nsg20
S'standard'
p273
sg22
(dp274
g24
I0
sg25
I0
ssg26
(dp275
g28
(dp276
sg30
(dp277
sg13
(dp278
sg14
(dp279
sg34
(dp280
sg36
Nssg37
(lp281
sg39
I00
sg40
(dp282
g42
(lp283
I82
aI999
asg44
Nssg45
g103
sg47
(lp284
sg49
(lp285
I-1
aI1
asba(iitem
Item
p286
(dp287
g3
(dp288
sg5
(dp289
g7
I0
sg8
I0
sg9
I0
sg10
I0
sg11
I0
sg12
I0
sg13
I0
sg14
I0
sg15
I0
sg16
I0
ssg17
VMini Knife
p290
sg19
Nsg20
S'standard'
p291
sg22
(dp292
g24
I0
sg25
I0
ssg26
(dp293
g28
(dp294
sg30
(dp295
sg13
(dp296
sg14
(dp297
sg34
(dp298
sg36
Nssg37
(lp299
sg39
I00
sg40
(dp300
g42
(lp301
I13
aI999
asg44
Nssg45
g103
sg47
(lp302
sg49
(lp303
I-1
aI1
asba(iitem
Item
p304
(dp305
g3
(dp306
sg5
(dp307
g7
I0
sg8
I0
sg9
I0
sg10
I0
sg11
I0
sg12
I0
sg13
I0
sg14
I0
sg15
I0
sg16
I0
ssg17
VBroken Sword
p308
sg19
Nsg20
S'standard'
p309
sg22
(dp310
g24
I0
sg25
I0
ssg26
(dp311
g28
(dp312
sg30
(dp313
sg13
(dp314
sg14
(dp315
sg34
(dp316
sg36
Nssg37
(lp317
sg39
I00
sg40
(dp318
g42
(lp319
I10
aI999
asg44
Nssg45
g103
sg47
(lp320
sg49
(lp321
I-1
aI1
asba(iitem
Item
p322
(dp323
g3
(dp324
sg5
(dp325
g7
I0
sg8
I0
sg9
I0
sg10
I0
sg11
I0
sg12
I0
sg13
I0
sg14
I0
sg15
I0
sg16
I0
ssg17
VApple
p326
sg19
Nsg20
S'standard'
p327
sg22
(dp328
g24
I0
sg25
I0
ssg26
(dp329
g28
(dp330
sg30
(dp331
sg13
(dp332
sg14
(dp333
sg34
(dp334
sg36
Nssg37
(lp335
sg39
I00
sg40
(dp336
g42
(lp337
I42
aI999
asg44
Nssg45
g103
sg47
(lp338
sg49
(lp339
I-1
aI1
asba(iitem
Item
p340
(dp341
g3
(dp342
sg5
(dp343
g7
I0
sg8
I0
sg9
I0
sg10
I0
sg11
I0
sg12
I0
sg13
I0
sg14
I0
sg15
I0
sg16
I0
ssg17
VPurple Robe with Turkey L
p344
sg19
Nsg20
S'standard'
p345
sg22
(dp346
g24
I0
sg25
I0
ssg26
(dp347
g28
(dp348
sg30
(dp349
sg13
(dp350
sg14
(dp351
sg34
(dp352
sg36
Nssg37
(lp353
sg39
I00
sg40
(dp354
g42
(lp355
I1
aI999
asg44
Nssg45
g46
sg47
(lp356
sg49
(lp357
I-1
aI1
asba(iitem
Item
p358
(dp359
g3
(dp360
sg5
(dp361
g7
I0
sg8
I0
sg9
I0
sg10
I0
sg11
I0
sg12
I0
sg13
I0
sg14
I0
sg15
I0
sg16
I0
ssg17
VThe 360 Sniper
p362
sg19
Nsg20
S'standard'
p363
sg22
(dp364
g24
I0
sg25
I0
ssg26
(dp365
g28
(dp366
sg30
(dp367
sg13
(dp368
sg14
(dp369
sg34
(dp370
sg36
Nssg37
(lp371
sg39
I00
sg40
(dp372
g42
(lp373
I262
aI-1
asg44
Nssg45
S'None'
p374
sg47
(lp375
sg49
(lp376
I-1
aI1
asba.