(lp0
(ientity
Entity
p1
(dp2
S'big_stats'
p3
(dp4
S'dexterity'
p5
I0
sS'strength'
p6
I0
sS'integrity'
p7
I0
sS'constitution'
p8
I0
sS'intelligence'
p9
I0
ssS'stats'
p10
(dp11
S'spatk'
p12
I1
sS'acc'
p13
I1
sS'dfn'
p14
I1
sS'bless'
p15
I1
sS'spdfn'
p16
I1
sS'eva'
p17
I1
sS'hp'
p18
I10
sS'sp'
p19
I10
sS'atk'
p20
I1
sS'crit'
p21
I1
ssS'name'
p22
VOrc Minion
p23
sS'skills'
p24
(lp25
sS'items'
p26
(lp27
sS'import_file'
p28
S'standard'
p29
sS'player'
p30
(dp31
S'element'
p32
NsS'class'
p33
NsS'team'
p34
S'enemy'
p35
ssS'effects'
p36
(lp37
sS'data'
p38
(dp39
S'gold'
p40
I100
sS'hunger'
p41
I100
sS'food'
p42
I100
sg18
I10
sg19
I10
sS'jewels'
p43
I120
sS'lvl'
p44
I10
sS'xp'
p45
I0
ssba(ientity
Entity
p46
(dp47
g3
(dp48
g5
I0
sg6
I0
sg7
I0
sg8
I0
sg9
I0
ssg10
(dp49
g12
I1
sg13
I1
sg14
I1
sg15
I1
sg16
I1
sg17
I1
sg18
I10
sg19
I10
sg20
I1
sg21
I1
ssg22
VThe King
p50
sg24
(lp51
sg26
(lp52
sg28
S'standard'
p53
sg30
(dp54
g32
Nsg33
Nsg34
S'enemy'
p55
ssg36
(lp56
sg38
(dp57
g40
I15000
sg41
I100
sg42
I100
sg18
I10
sg19
I10
sg43
I6000
sg44
I999
sg45
I0
ssba(ientity
Entity
p58
(dp59
g3
(dp60
g5
I0
sg6
I0
sg7
I0
sg8
I0
sg9
I0
ssg10
(dp61
g12
I1
sg13
I1
sg14
I1
sg15
I1
sg16
I1
sg17
I1
sg18
I10
sg19
I10
sg20
I1
sg21
I1
ssg22
VLauren
p62
sg24
(lp63
sg26
(lp64
sg28
S'standard'
p65
sg30
(dp66
g32
Nsg33
Nsg34
S'player'
p67
ssg36
(lp68
sg38
(dp69
g40
I323
sg41
I100
sg42
I100
sg18
I10
sg19
I10
sg43
I420
sg44
I100
sg45
I0
ssba(ientity
Entity
p70
(dp71
g3
(dp72
g5
I0
sg6
I0
sg7
I0
sg8
I0
sg9
I0
ssg10
(dp73
g12
I1
sg13
I1
sg14
I1
sg15
I1
sg16
I1
sg17
I1
sg18
I10
sg19
I10
sg20
I1
sg21
I1
ssg22
VSpider
p74
sg24
(lp75
sg26
(lp76
sg28
S'standard'
p77
sg30
(dp78
g32
Nsg33
Nsg34
S'enemy'
p79
ssg36
(lp80
sg38
(dp81
g40
I0
sg41
I100
sg42
I100
sg18
I10
sg19
I10
sg43
I0
sg44
I10
sg45
I0
ssba(ientity
Entity
p82
(dp83
g3
(dp84
g5
I0
sg6
I0
sg7
I0
sg8
I0
sg9
I0
ssg10
(dp85
g12
I1
sg13
I1
sg14
I1
sg15
I1
sg16
I1
sg17
I1
sg18
I10
sg19
I10
sg20
I1
sg21
I1
ssg22
VBlack Orc
p86
sg24
(lp87
sg26
(lp88
sg28
S'standard'
p89
sg30
(dp90
g32
Nsg33
Nsg34
S'enemy'
p91
ssg36
(lp92
sg38
(dp93
g40
I0
sg41
I100
sg42
I100
sg18
I10
sg19
I10
sg43
I0
sg44
I150
sg45
I0
ssba(ientity
Entity
p94
(dp95
g3
(dp96
g5
I0
sg6
I0
sg7
I0
sg8
I0
sg9
I0
ssg10
(dp97
g12
I1
sg13
I1
sg14
I1
sg15
I1
sg16
I1
sg17
I1
sg18
I10
sg19
I10
sg20
I1
sg21
I1
ssg22
VIsaac
p98
sg24
(lp99
sg26
(lp100
sg28
S'standard'
p101
sg30
(dp102
g32
Nsg33
Nsg34
S'player'
p103
ssg36
(lp104
sg38
(dp105
g40
I120
sg41
I100
sg42
I100
sg18
I10
sg19
I10
sg43
I30
sg44
I10
sg45
I0
ssba(ientity
Entity
p106
(dp107
g3
(dp108
g5
I0
sg6
I0
sg7
I0
sg8
I0
sg9
I0
ssg10
(dp109
g12
I1
sg13
I1
sg14
I1
sg15
I1
sg16
I1
sg17
I1
sg18
I10
sg19
I10
sg20
I1
sg21
I1
ssg22
VAlex
p110
sg24
(lp111
sg26
(lp112
sg28
S'standard'
p113
sg30
(dp114
g32
Nsg33
Nsg34
S'player'
p115
ssg36
(lp116
sg38
(dp117
g40
I4
sg41
I100
sg42
I100
sg18
I10
sg19
I10
sg43
I66
sg44
I12
sg45
I0
ssba(ientity
Entity
p118
(dp119
g3
(dp120
g5
I0
sg6
I0
sg7
I0
sg8
I0
sg9
I0
ssg10
(dp121
g12
I1
sg13
I1
sg14
I1
sg15
I1
sg16
I1
sg17
I1
sg18
I10
sg19
I10
sg20
I1
sg21
I1
ssg22
VOlivia
p122
sg24
(lp123
sg26
(lp124
sg28
S'standard'
p125
sg30
(dp126
g32
Nsg33
Nsg34
g67
ssg36
(lp127
sg38
(dp128
g40
I500
sg41
I100
sg42
I100
sg18
I10
sg19
I10
sg43
I230
sg44
I120
sg45
I0
ssba(ientity
Entity
p129
(dp130
g3
(dp131
g5
I0
sg6
I0
sg7
I0
sg8
I0
sg9
I0
ssg10
(dp132
g12
I1
sg13
I1
sg14
I1
sg15
I1
sg16
I1
sg17
I1
sg18
I10
sg19
I10
sg20
I1
sg21
I1
ssg22
VScrooge McDuck
p133
sg24
(lp134
sg26
(lp135
sg28
S'standard'
p136
sg30
(dp137
g32
Nsg33
Nsg34
S'player'
p138
ssg36
(lp139
sg38
(dp140
g40
I0
sg41
I100
sg42
I100
sg18
I10
sg19
I10
sg43
I0
sg44
I1
sg45
I0
ssba(ientity
Entity
p141
(dp142
g3
(dp143
g5
I0
sg6
I0
sg7
I0
sg8
I0
sg9
I0
ssg10
(dp144
g12
I1
sg13
I1
sg14
I1
sg15
I1
sg16
I1
sg17
I1
sg18
I10
sg19
I10
sg20
I1
sg21
I1
ssg22
VOrc Scout
p145
sg24
(lp146
sg26
(lp147
sg28
S'standard'
p148
sg30
(dp149
g32
Nsg33
Nsg34
g35
ssg36
(lp150
sg38
(dp151
g40
I0
sg41
I100
sg42
I100
sg18
I10
sg19
I10
sg43
I0
sg44
I11
sg45
I0
ssba(ientity
Entity
p152
(dp153
g3
(dp154
g5
I0
sg6
I0
sg7
I0
sg8
I0
sg9
I0
ssg10
(dp155
g12
I1
sg13
I1
sg14
I1
sg15
I1
sg16
I1
sg17
I1
sg18
I10
sg19
I10
sg20
I1
sg21
I1
ssg22
VThe Bruckstone
p156
sg24
(lp157
sg26
(lp158
sg28
S'standard'
p159
sg30
(dp160
g32
Nsg33
Nsg34
S'player'
p161
ssg36
(lp162
sg38
(dp163
g40
I0
sg41
I100
sg42
I100
sg18
I10
sg19
I10
sg43
I0
sg44
I1
sg45
I0
ssba.