(lp0
(ientity
Entity
p1
(dp2
S'big_stats'
p3
(dp4
S'dexterity'
p5
I0
sS'strength'
p6
I0
sS'integrity'
p7
I0
sS'constitution'
p8
I0
sS'intelligence'
p9
I0
ssS'stats'
p10
(dp11
S'spatk'
p12
I1
sS'acc'
p13
I1
sS'dfn'
p14
I1
sS'bless'
p15
I1
sS'spdfn'
p16
I1
sS'eva'
p17
I1
sS'hp'
p18
I10
sS'sp'
p19
I10
sS'atk'
p20
I1
sS'crit'
p21
I1
ssS'name'
p22
VScrooge McDuck
p23
sS'skills'
p24
(lp25
sS'items'
p26
(lp27
sS'import_file'
p28
S'standard'
p29
sS'player'
p30
(dp31
S'element'
p32
NsS'class'
p33
NsS'team'
p34
S'player'
p35
ssS'effects'
p36
(lp37
sS'data'
p38
(dp39
S'gold'
p40
I0
sS'hunger'
p41
I100
sg18
I10
sg19
I10
sS'jewels'
p42
I0
sS'lvl'
p43
I1
sS'xp'
p44
I0
ssba(ientity
Entity
p45
(dp46
g3
(dp47
g5
I0
sg6
I0
sg7
I0
sg8
I0
sg9
I0
ssg10
(dp48
g12
I1
sg13
I1
sg14
I1
sg15
I1
sg16
I1
sg17
I1
sg18
I10
sg19
I10
sg20
I1
sg21
I1
ssg22
VThe King
p49
sg24
(lp50
sg26
(lp51
sg28
S'standard'
p52
sg30
(dp53
g32
Nsg33
Nsg34
S'enemy'
p54
ssg36
(lp55
sg38
(dp56
g40
I15000
sg41
I100
sg18
I10
sg19
I10
sg42
I6000
sg43
I999
sg44
I0
ssba(ientity
Entity
p57
(dp58
g3
(dp59
g5
I0
sg6
I0
sg7
I0
sg8
I0
sg9
I0
ssg10
(dp60
g12
I1
sg13
I1
sg14
I1
sg15
I1
sg16
I1
sg17
I1
sg18
I10
sg19
I10
sg20
I1
sg21
I1
ssg22
VThe Bruckstone
p61
sg24
(lp62
sg26
(lp63
sg28
S'standard'
p64
sg30
(dp65
g32
Nsg33
Nsg34
S'player'
p66
ssg36
(lp67
sg38
(dp68
g40
I0
sg41
I100
sg18
I10
sg19
I10
sg42
I0
sg43
I1
sg44
I0
ssba(ientity
Entity
p69
(dp70
g3
(dp71
g5
I0
sg6
I0
sg7
I0
sg8
I0
sg9
I0
ssg10
(dp72
g12
I1
sg13
I1
sg14
I1
sg15
I1
sg16
I1
sg17
I1
sg18
I10
sg19
I10
sg20
I1
sg21
I1
ssg22
VSpider
p73
sg24
(lp74
sg26
(lp75
sg28
S'standard'
p76
sg30
(dp77
g32
Nsg33
Nsg34
S'enemy'
p78
ssg36
(lp79
sg38
(dp80
g40
I0
sg41
I100
sg18
I10
sg19
I10
sg42
I0
sg43
I10
sg44
I0
ssba(ientity
Entity
p81
(dp82
g3
(dp83
g5
I0
sg6
I0
sg7
I0
sg8
I0
sg9
I0
ssg10
(dp84
g12
I1
sg13
I1
sg14
I1
sg15
I1
sg16
I1
sg17
I1
sg18
I10
sg19
I10
sg20
I1
sg21
I1
ssg22
VOrc Minion
p85
sg24
(lp86
sg26
(lp87
sg28
S'standard'
p88
sg30
(dp89
g32
Nsg33
Nsg34
S'enemy'
p90
ssg36
(lp91
sg38
(dp92
g40
I100
sg41
I100
sg18
I10
sg19
I10
sg42
I120
sg43
I10
sg44
I0
ssba(ientity
Entity
p93
(dp94
g3
(dp95
g5
I0
sg6
I0
sg7
I0
sg8
I0
sg9
I0
ssg10
(dp96
g12
I1
sg13
I1
sg14
I1
sg15
I1
sg16
I1
sg17
I1
sg18
I10
sg19
I10
sg20
I1
sg21
I1
ssg22
VIsaac
p97
sg24
(lp98
sg26
(lp99
sg28
S'standard'
p100
sg30
(dp101
g32
Nsg33
Nsg34
S'player'
p102
ssg36
(lp103
sg38
(dp104
g40
I120
sg41
I100
sg18
I10
sg19
I10
sg42
I30
sg43
I10
sg44
I0
ssba(ientity
Entity
p105
(dp106
g3
(dp107
g5
I0
sg6
I0
sg7
I0
sg8
I0
sg9
I0
ssg10
(dp108
g12
I1
sg13
I1
sg14
I1
sg15
I1
sg16
I1
sg17
I1
sg18
I10
sg19
I10
sg20
I1
sg21
I1
ssg22
VLauren
p109
sg24
(lp110
sg26
(lp111
sg28
S'standard'
p112
sg30
(dp113
g32
Nsg33
Nsg34
S'player'
p114
ssg36
(lp115
sg38
(dp116
g40
I323
sg41
I100
sg18
I10
sg19
I10
sg42
I420
sg43
I100
sg44
I0
ssba(ientity
Entity
p117
(dp118
g3
(dp119
g5
I0
sg6
I0
sg7
I0
sg8
I0
sg9
I0
ssg10
(dp120
g12
I1
sg13
I1
sg14
I1
sg15
I1
sg16
I1
sg17
I1
sg18
I10
sg19
I10
sg20
I1
sg21
I1
ssg22
VOlivia
p121
sg24
(lp122
sg26
(lp123
sg28
S'standard'
p124
sg30
(dp125
g32
Nsg33
Nsg34
g114
ssg36
(lp126
sg38
(dp127
g40
I500
sg41
I100
sg18
I10
sg19
I10
sg42
I230
sg43
I120
sg44
I0
ssba(ientity
Entity
p128
(dp129
g3
(dp130
g5
I0
sg6
I0
sg7
I0
sg8
I0
sg9
I0
ssg10
(dp131
g12
I1
sg13
I1
sg14
I1
sg15
I1
sg16
I1
sg17
I1
sg18
I10
sg19
I10
sg20
I1
sg21
I1
ssg22
VBlack Orc
p132
sg24
(lp133
sg26
(lp134
sg28
S'standard'
p135
sg30
(dp136
g32
Nsg33
Nsg34
S'enemy'
p137
ssg36
(lp138
sg38
(dp139
g40
I0
sg41
I100
sg18
I10
sg19
I10
sg42
I0
sg43
I150
sg44
I0
ssba(ientity
Entity
p140
(dp141
g3
(dp142
g5
I0
sg6
I0
sg7
I0
sg8
I0
sg9
I0
ssg10
(dp143
g12
I1
sg13
I1
sg14
I1
sg15
I1
sg16
I1
sg17
I1
sg18
I10
sg19
I10
sg20
I1
sg21
I1
ssg22
VOrc Scout
p144
sg24
(lp145
sg26
(lp146
sg28
S'standard'
p147
sg30
(dp148
g32
Nsg33
Nsg34
g90
ssg36
(lp149
sg38
(dp150
g40
I0
sg41
I100
sg18
I10
sg19
I10
sg42
I0
sg43
I11
sg44
I0
ssba(ientity
Entity
p151
(dp152
g3
(dp153
g5
I0
sg6
I0
sg7
I0
sg8
I0
sg9
I0
ssg10
(dp154
g12
I1
sg13
I1
sg14
I1
sg15
I1
sg16
I1
sg17
I1
sg18
I10
sg19
I10
sg20
I1
sg21
I1
ssg22
VAlex
p155
sg24
(lp156
sg26
(lp157
sg28
S'standard'
p158
sg30
(dp159
g32
Nsg33
Nsg34
S'player'
p160
ssg36
(lp161
sg38
(dp162
g40
I4
sg41
I100
sg18
I10
sg19
I10
sg42
I66
sg43
I12
sg44
I0
ssba.